target datalayout = "e-m:e-p270:32:32-p271:32:32-p272:64:64-i64:64-i128:128-f80:128-n8:16:32:64-S128"
target triple = "x86_64-unknown-linux-gnu"

%"struct.std::atomic" = type { %"struct.std::__atomic_base" }
%"struct.std::__atomic_base" = type { i8 }
%"class.grpc_core::Call" = type { ptr, %"class.grpc_core::RefCountedPtr", ptr, %"struct.std::atomic.0", ptr, %"class.grpc_core::Timestamp", i8, i8, i32, %"class.grpc_core::CompressionAlgorithmSet", i32, %"class.absl::lts_20230802::Mutex", %"class.grpc_core::Slice", double }
%"class.grpc_core::RefCountedPtr" = type { ptr }
%"struct.std::atomic.0" = type { %"struct.std::__atomic_base.1" }
%"struct.std::__atomic_base.1" = type { ptr }
%"class.grpc_core::Timestamp" = type { i64 }
%"class.grpc_core::CompressionAlgorithmSet" = type { %"class.grpc_core::BitSet" }
%"class.grpc_core::BitSet" = type { [1 x i8] }
%"class.absl::lts_20230802::Mutex" = type { %"struct.std::atomic.2" }
%"struct.std::atomic.2" = type { %"struct.std::__atomic_base.3" }
%"struct.std::__atomic_base.3" = type { i64 }
%"class.grpc_core::Slice" = type { %"class.grpc_core::slice_detail::BaseSlice" }
%"class.grpc_core::slice_detail::BaseSlice" = type { %struct.grpc_slice }
%struct.grpc_slice = type { ptr, %"union.grpc_slice::grpc_slice_data" }
%"union.grpc_slice::grpc_slice_data" = type { %"struct.grpc_slice::grpc_slice_data::grpc_slice_refcounted", [8 x i8] }
%"struct.grpc_slice::grpc_slice_data::grpc_slice_refcounted" = type { i64, ptr }
%"class.absl::lts_20230802::Status" = type { i64 }
%"struct.std::atomic.4" = type { %"struct.std::__atomic_base.5" }
%"struct.std::__atomic_base.5" = type { i64 }
%struct.grpc_transport_stream_op_batch_payload = type { %struct.anon.122, %struct.anon.123, %struct.anon.124, %struct.anon.125, %struct.anon.126, %struct.anon.127, %struct.anon.128, ptr }
%struct.anon.122 = type { ptr }
%struct.anon.123 = type { ptr, ptr }
%struct.anon.124 = type <{ ptr, i32, i8, [3 x i8] }>
%struct.anon.125 = type { ptr, ptr, ptr }
%struct.anon.126 = type { ptr, ptr, ptr, ptr }
%struct.anon.127 = type { ptr, ptr, ptr }
%struct.anon.128 = type <{ %"class.absl::lts_20230802::Status", i8, [7 x i8] }>
%struct.grpc_call_stats = type { %struct.grpc_transport_stream_stats, %struct.gpr_timespec }
%struct.grpc_transport_stream_stats = type { %struct.grpc_transport_one_way_stats, %struct.grpc_transport_one_way_stats, %struct.gpr_timespec }
%struct.grpc_transport_one_way_stats = type { i64, i64, i64 }
%struct.gpr_timespec = type { i64, i32, i32 }
%struct.grpc_call_context_element = type { ptr, ptr }
%"class.grpc_core::Orphanable" = type { ptr }
%struct.grpc_cq_completion = type { %"class.grpc_core::ManualConstructor", ptr, ptr, ptr, i64 }
%"class.grpc_core::ManualConstructor" = type { [8 x i8] }
%"class.grpc_core::PromiseBasedCall" = type { %"class.grpc_core::Call", %"class.grpc_core::Party", %"class.grpc_event_engine::experimental::EventEngine::Closure", %"class.grpc_core::CallContext", %"struct.std::atomic.4", [8 x %struct.grpc_call_context_element], ptr, [6 x %"union.grpc_core::PromiseBasedCall::CompletionInfo"], %struct.grpc_call_stats, %"class.grpc_core::Slice", i32, %"class.grpc_core::CallFinalization", %"class.absl::lts_20230802::Mutex", %"class.grpc_core::Timestamp", %"struct.grpc_event_engine::experimental::EventEngine::TaskHandle", %"class.grpc_core::ExternallyObservableLatch", %"struct.std::atomic.274", %"struct.std::atomic", %"class.grpc_core::IntraActivityWaiter", ptr, %struct.grpc_transport_stream_op_batch_payload }
%"class.grpc_core::Party" = type { %"class.grpc_core::Activity", %"class.grpc_core::Wakeable", %"class.grpc_core::PartySyncUsingAtomics", ptr, i8, [16 x %"struct.std::atomic.270"] }
%"class.grpc_core::Activity" = type { %"class.grpc_core::Orphanable" }
%"class.grpc_core::Wakeable" = type { ptr }
%"class.grpc_core::PartySyncUsingAtomics" = type { %"struct.std::atomic.4" }
%"struct.std::atomic.270" = type { %"struct.std::__atomic_base.271" }
%"struct.std::__atomic_base.271" = type { ptr }
%"class.grpc_event_engine::experimental::EventEngine::Closure" = type { ptr }
%"class.grpc_core::CallContext" = type <{ %struct.grpc_call_stats, ptr, double, i8, [7 x i8] }>
%"union.grpc_core::PromiseBasedCall::CompletionInfo" = type { %struct.grpc_cq_completion }
%"class.grpc_core::CallFinalization" = type { ptr }
%"struct.grpc_event_engine::experimental::EventEngine::TaskHandle" = type { [2 x i64] }
%"class.grpc_core::ExternallyObservableLatch" = type { %"struct.std::atomic", %"class.grpc_core::IntraActivityWaiter" }
%"struct.std::atomic.274" = type { %"struct.std::__atomic_base.275" }
%"struct.std::__atomic_base.275" = type { i8 }
%"class.grpc_core::IntraActivityWaiter" = type { i16 }

; Function Attrs: mustprogress uwtable
define void @_ZN9grpc_core16PromiseBasedCall10ContextSetE18grpc_context_indexPvPFvS2_E(ptr noundef nonnull align 8 dereferenceable(1096) %this, i32 noundef %elem, ptr noundef %value, ptr noundef %destroy) unnamed_addr #4 align 2 {
entry:
  %this.addr = alloca ptr, align 8
  %elem.addr = alloca i32, align 4
  %value.addr = alloca ptr, align 8
  %destroy.addr = alloca ptr, align 8
  store ptr %this, ptr %this.addr, align 8
  store i32 %elem, ptr %elem.addr, align 4
  store ptr %value, ptr %value.addr, align 8
  store ptr %destroy, ptr %destroy.addr, align 8
  %this1 = load ptr, ptr %this.addr, align 8
  %context_ = getelementptr inbounds %"class.grpc_core::PromiseBasedCall", ptr %this1, i32 0, i32 5
  %0 = load i32, ptr %elem.addr, align 4
  %idxprom = zext i32 %0 to i64
  %arrayidx = getelementptr inbounds [8 x %struct.grpc_call_context_element], ptr %context_, i64 0, i64 %idxprom
  %destroy2 = getelementptr inbounds %struct.grpc_call_context_element, ptr %arrayidx, i32 0, i32 1
  %1 = load ptr, ptr %destroy2, align 8
  %cmp = icmp ne ptr %1, null
  br i1 %cmp, label %if.then, label %if.end

if.then:                                          ; preds = %entry
  %context_3 = getelementptr inbounds %"class.grpc_core::PromiseBasedCall", ptr %this1, i32 0, i32 5
  %2 = load i32, ptr %elem.addr, align 4
  %idxprom4 = zext i32 %2 to i64
  %arrayidx5 = getelementptr inbounds [8 x %struct.grpc_call_context_element], ptr %context_3, i64 0, i64 %idxprom4
  %destroy6 = getelementptr inbounds %struct.grpc_call_context_element, ptr %arrayidx5, i32 0, i32 1
  %3 = load ptr, ptr %destroy6, align 8
  %context_7 = getelementptr inbounds %"class.grpc_core::PromiseBasedCall", ptr %this1, i32 0, i32 5
  %4 = load i32, ptr %elem.addr, align 4
  %idxprom8 = zext i32 %4 to i64
  %arrayidx9 = getelementptr inbounds [8 x %struct.grpc_call_context_element], ptr %context_7, i64 0, i64 %idxprom8
  %value10 = getelementptr inbounds %struct.grpc_call_context_element, ptr %arrayidx9, i32 0, i32 0
  %5 = load ptr, ptr %value10, align 8
  call void %3(ptr noundef %5)
  br label %if.end

if.end:                                           ; preds = %if.then, %entry
  %6 = load ptr, ptr %value.addr, align 8
  %context_11 = getelementptr inbounds %"class.grpc_core::PromiseBasedCall", ptr %this1, i32 0, i32 5
  %7 = load i32, ptr %elem.addr, align 4
  %idxprom12 = zext i32 %7 to i64
  %arrayidx13 = getelementptr inbounds [8 x %struct.grpc_call_context_element], ptr %context_11, i64 0, i64 %idxprom12
  %value14 = getelementptr inbounds %struct.grpc_call_context_element, ptr %arrayidx13, i32 0, i32 0
  store ptr %6, ptr %value14, align 8
  %8 = load ptr, ptr %destroy.addr, align 8
  %context_15 = getelementptr inbounds %"class.grpc_core::PromiseBasedCall", ptr %this1, i32 0, i32 5
  %9 = load i32, ptr %elem.addr, align 4
  %idxprom16 = zext i32 %9 to i64
  %arrayidx17 = getelementptr inbounds [8 x %struct.grpc_call_context_element], ptr %context_15, i64 0, i64 %idxprom16
  %destroy18 = getelementptr inbounds %struct.grpc_call_context_element, ptr %arrayidx17, i32 0, i32 1
  store ptr %8, ptr %destroy18, align 8
  ret void
}