; Function Attrs: mustprogress uwtable
define void @_ZN9grpc_core16PromiseBasedCall10ContextSetE18grpc_context_indexPvPFvS2_E(ptr nocapture noundef nonnull align 8 dereferenceable(1096) %this, i32 noundef %elem, ptr noundef %value, ptr noundef %destroy) unnamed_addr #3 align 2 {
entry:
  %context_ = getelementptr inbounds i8, ptr %this, i64 400
  %idxprom = zext i32 %elem to i64
  %arrayidx = getelementptr inbounds [8 x %struct.grpc_call_context_element], ptr %context_, i64 0, i64 %idxprom
  %destroy2 = getelementptr inbounds i8, ptr %arrayidx, i64 8
  %0 = load ptr, ptr %destroy2, align 8
  %cmp.not = icmp eq ptr %0, null
  br i1 %cmp.not, label %if.end, label %if.then

if.then:                                          ; preds = %entry
  %1 = load ptr, ptr %arrayidx, align 8
  tail call void %0(ptr noundef %1)
  br label %if.end

if.end:                                           ; preds = %if.then, %entry
  store ptr %value, ptr %arrayidx, align 8
  store ptr %destroy, ptr %destroy2, align 8
  ret void
}